target datalayout = "e-m:e-p270:32:32-p271:32:32-p272:64:64-i64:64-i128:128-f80:128-n8:16:32:64-S128"
target triple = "x86_64-pc-linux-gnu"

%struct.hb_font_funcs_t = type { %struct.hb_object_header_t, ptr, ptr, %"union.hb_font_funcs_t::get_t" }
%struct.hb_object_header_t = type { %struct.hb_reference_count_t, %struct.hb_atomic_int_t, %struct.hb_atomic_ptr_t }
%struct.hb_reference_count_t = type { %struct.hb_atomic_int_t }
%struct.hb_atomic_int_t = type { i32 }
%struct.hb_atomic_ptr_t = type { ptr }
%"union.hb_font_funcs_t::get_t" = type { %"struct.hb_font_funcs_t::get_t::get_funcs_t" }
%"struct.hb_font_funcs_t::get_t::get_funcs_t" = type { ptr, ptr, ptr, ptr, ptr, ptr, ptr, ptr, ptr, ptr, ptr, ptr, ptr, ptr, ptr, ptr, ptr, ptr, ptr }
%struct.hb_atomic_ptr_t.1 = type { ptr }
%struct.hb_atomic_ptr_t.5 = type { ptr }
%struct.hb_font_t = type { %struct.hb_object_header_t, i32, i32, ptr, ptr, i32, i32, float, float, i8, i32, i32, float, float, float, float, i64, i64, i32, i32, float, i32, i32, ptr, ptr, ptr, ptr, ptr, %struct.hb_shaper_object_dataset_t }
%struct.hb_shaper_object_dataset_t = type { ptr, %struct.hb_shaper_lazy_loader_t, %struct.hb_shaper_lazy_loader_t.2 }
%struct.hb_shaper_lazy_loader_t = type { %struct.hb_lazy_loader_t }
%struct.hb_lazy_loader_t = type { %struct.hb_atomic_ptr_t.1 }
%struct.hb_shaper_lazy_loader_t.2 = type { %struct.hb_lazy_loader_t.3 }
%struct.hb_lazy_loader_t.3 = type { %struct.hb_atomic_ptr_t.5 }
%struct.anon.0 = type { ptr, ptr, ptr, ptr, ptr, ptr, ptr, ptr, ptr, ptr, ptr, ptr, ptr, ptr, ptr, ptr, ptr, ptr, ptr }

; Function Attrs: mustprogress nounwind uwtable
define internal noundef ptr @_ZL9hb_memsetPvij(ptr noundef %0, i32 noundef %1, i32 noundef %2) #1 {
  %4 = alloca ptr, align 8
  %5 = alloca ptr, align 8
  %6 = alloca i32, align 4
  %7 = alloca i32, align 4
  store ptr %0, ptr %5, align 8
  store i32 %1, ptr %6, align 4
  store i32 %2, ptr %7, align 4
  %8 = load i32, ptr %7, align 4
  %9 = icmp ne i32 %8, 0
  br i1 %9, label %12, label %10

10:                                               ; preds = %3
  %11 = load ptr, ptr %5, align 8
  store ptr %11, ptr %4, align 8
  br label %18

12:                                               ; preds = %3
  %13 = load ptr, ptr %5, align 8
  %14 = load i32, ptr %6, align 4
  %15 = trunc i32 %14 to i8
  %16 = load i32, ptr %7, align 4
  %17 = zext i32 %16 to i64
  call void @llvm.memset.p0.i64(ptr align 1 %13, i8 %15, i64 %17, i1 false)
  store ptr %13, ptr %4, align 8
  br label %18

18:                                               ; preds = %12, %10
  %19 = load ptr, ptr %4, align 8
  ret ptr %19
}

; Function Attrs: mustprogress uwtable
define linkonce_odr hidden noundef i32 @_ZN9hb_font_t17get_glyph_extentsEjP18hb_glyph_extents_t(ptr noundef nonnull align 8 dereferenceable(192) %0, i32 noundef %1, ptr noundef %2) #0 comdat align 2 {
  %4 = alloca ptr, align 8
  %5 = alloca i32, align 4
  %6 = alloca ptr, align 8
  store ptr %0, ptr %4, align 8
  store i32 %1, ptr %5, align 4
  store ptr %2, ptr %6, align 8
  %7 = load ptr, ptr %4, align 8
  %8 = load ptr, ptr %6, align 8
  %9 = call noundef ptr @_ZL9hb_memsetPvij(ptr noundef %8, i32 noundef 0, i32 noundef 16)
  %10 = getelementptr inbounds %struct.hb_font_t, ptr %7, i32 0, i32 25
  %11 = load ptr, ptr %10, align 8
  %12 = getelementptr inbounds %struct.hb_font_funcs_t, ptr %11, i32 0, i32 3
  %13 = getelementptr inbounds %"struct.hb_font_funcs_t::get_t::get_funcs_t", ptr %12, i32 0, i32 13
  %14 = load ptr, ptr %13, align 8
  %15 = getelementptr inbounds %struct.hb_font_t, ptr %7, i32 0, i32 26
  %16 = load ptr, ptr %15, align 8
  %17 = load i32, ptr %5, align 4
  %18 = load ptr, ptr %6, align 8
  %19 = getelementptr inbounds %struct.hb_font_t, ptr %7, i32 0, i32 25
  %20 = load ptr, ptr %19, align 8
  %21 = getelementptr inbounds %struct.hb_font_funcs_t, ptr %20, i32 0, i32 1
  %22 = load ptr, ptr %21, align 8
  %23 = icmp ne ptr %22, null
  br i1 %23, label %25, label %24

24:                                               ; preds = %3
  br label %32

25:                                               ; preds = %3
  %26 = getelementptr inbounds %struct.hb_font_t, ptr %7, i32 0, i32 25
  %27 = load ptr, ptr %26, align 8
  %28 = getelementptr inbounds %struct.hb_font_funcs_t, ptr %27, i32 0, i32 1
  %29 = load ptr, ptr %28, align 8
  %30 = getelementptr inbounds %struct.anon.0, ptr %29, i32 0, i32 13
  %31 = load ptr, ptr %30, align 8
  br label %32

32:                                               ; preds = %25, %24
  %33 = phi ptr [ null, %24 ], [ %31, %25 ]
  %34 = call noundef i32 %14(ptr noundef %7, ptr noundef %16, i32 noundef %17, ptr noundef %18, ptr noundef %33)
  ret i32 %34
}

; Function Attrs: mustprogress uwtable
define hidden i32 @hb_font_get_glyph_extents(ptr noundef %0, i32 noundef %1, ptr noundef %2) #0 {
  %4 = alloca ptr, align 8
  %5 = alloca i32, align 4
  %6 = alloca ptr, align 8
  store ptr %0, ptr %4, align 8
  store i32 %1, ptr %5, align 4
  store ptr %2, ptr %6, align 8
  %7 = load ptr, ptr %4, align 8
  %8 = load i32, ptr %5, align 4
  %9 = load ptr, ptr %6, align 8
  %10 = call noundef i32 @_ZN9hb_font_t17get_glyph_extentsEjP18hb_glyph_extents_t(ptr noundef nonnull align 8 dereferenceable(192) %7, i32 noundef %8, ptr noundef %9)
  ret i32 %10
}